target datalayout = "e-m:e-p270:32:32-p271:32:32-p272:64:64-i64:64-i128:128-f80:128-n8:16:32:64-S128"
target triple = "x86_64-pc-linux-gnu"

%struct.AVTextFormatContext = type { ptr, ptr, ptr, ptr, ptr, ptr, i32, i32, [12 x i32], [12 x [100 x i32]], [12 x ptr], [12 x %struct.AVBPrint], i32, i32, i32, i32, i32, ptr, i32, ptr, i32 }
%struct.AVBPrint = type { ptr, i32, i32, i32, [1 x i8], [1000 x i8] }
%struct.XMLContext = type { ptr, i32, i32, i32, i32 }
%struct.AVTextFormatSection = type { i32, ptr, i32, [12 x i32], ptr, ptr, ptr, ptr, i32, ptr, ptr, ptr, ptr }
%struct.AVTextWriterContext = type { ptr, ptr, ptr, ptr }
%struct.AVTextWriter = type { ptr, i32, ptr, ptr, ptr, ptr, ptr, ptr }

@.str.12 = private unnamed_addr constant [178 x i8] c" xmlns:xsi=\22http://www.w3.org/2001/XMLSchema-instance\22 xmlns:ffprobe=\22http://www.ffmpeg.org/schema/ffprobe\22 xsi:schemaLocation=\22http://www.ffmpeg.org/schema/ffprobe ffprobe.xsd\22\00", align 1
@.str.13 = private unnamed_addr constant [40 x i8] c"<?xml version=\221.0\22 encoding=\22UTF-8\22?>\0A\00", align 1
@.str.14 = private unnamed_addr constant [15 x i8] c"<%sffprobe%s>\0A\00", align 1
@.str.15 = private unnamed_addr constant [9 x i8] c"ffprobe:\00", align 1
@.str.16 = private unnamed_addr constant [1 x i8] zeroinitializer, align 1
@.str.17 = private unnamed_addr constant [3 x i8] c">\0A\00", align 1
@.str.18 = private unnamed_addr constant [4 x i8] c"%*c\00", align 1
@.str.19 = private unnamed_addr constant [4 x i8] c"<%s\00", align 1
@.str.20 = private unnamed_addr constant [11 x i8] c" type=\22%s\22\00", align 1
@.str.21 = private unnamed_addr constant [5 x i8] c"<%s \00", align 1
@.str.22 = private unnamed_addr constant [36 x i8] c"Invalid section access at level %d\0A\00", align 1

; Function Attrs: inlinehint nounwind uwtable
define internal void @writer_w8(ptr noundef %0, i32 noundef %1) #2 {
  %3 = alloca ptr, align 8
  %4 = alloca i32, align 4
  store ptr %0, ptr %3, align 8, !tbaa !4
  store i32 %1, ptr %4, align 4, !tbaa !33
  %5 = load ptr, ptr %3, align 8, !tbaa !4
  %6 = getelementptr inbounds nuw %struct.AVTextFormatContext, ptr %5, i32 0, i32 2
  %7 = load ptr, ptr %6, align 8, !tbaa !41
  %8 = getelementptr inbounds nuw %struct.AVTextWriterContext, ptr %7, i32 0, i32 1
  %9 = load ptr, ptr %8, align 8, !tbaa !42
  %10 = getelementptr inbounds nuw %struct.AVTextWriter, ptr %9, i32 0, i32 5
  %11 = load ptr, ptr %10, align 8, !tbaa !48
  %12 = load ptr, ptr %3, align 8, !tbaa !4
  %13 = getelementptr inbounds nuw %struct.AVTextFormatContext, ptr %12, i32 0, i32 2
  %14 = load ptr, ptr %13, align 8, !tbaa !41
  %15 = load i32, ptr %4, align 4, !tbaa !33
  call void %11(ptr noundef %14, i32 noundef %15)
  ret void
}

; Function Attrs: inlinehint nounwind uwtable
define internal void @writer_put_str(ptr noundef %0, ptr noundef %1) #2 {
  %3 = alloca ptr, align 8
  %4 = alloca ptr, align 8
  store ptr %0, ptr %3, align 8, !tbaa !4
  store ptr %1, ptr %4, align 8, !tbaa !28
  %5 = load ptr, ptr %3, align 8, !tbaa !4
  %6 = getelementptr inbounds nuw %struct.AVTextFormatContext, ptr %5, i32 0, i32 2
  %7 = load ptr, ptr %6, align 8, !tbaa !41
  %8 = getelementptr inbounds nuw %struct.AVTextWriterContext, ptr %7, i32 0, i32 1
  %9 = load ptr, ptr %8, align 8, !tbaa !42
  %10 = getelementptr inbounds nuw %struct.AVTextWriter, ptr %9, i32 0, i32 6
  %11 = load ptr, ptr %10, align 8, !tbaa !45
  %12 = load ptr, ptr %3, align 8, !tbaa !4
  %13 = getelementptr inbounds nuw %struct.AVTextFormatContext, ptr %12, i32 0, i32 2
  %14 = load ptr, ptr %13, align 8, !tbaa !41
  %15 = load ptr, ptr %4, align 8, !tbaa !28
  call void %11(ptr noundef %14, ptr noundef %15)
  ret void
}

; Function Attrs: inlinehint nounwind uwtable
define internal ptr @tf_get_parent_section(ptr noundef %0, i32 noundef %1) #2 {
  %3 = alloca ptr, align 8
  %4 = alloca ptr, align 8
  %5 = alloca i32, align 4
  store ptr %0, ptr %4, align 8, !tbaa !4
  store i32 %1, ptr %5, align 4, !tbaa !33
  %6 = load i32, ptr %5, align 4, !tbaa !33
  %7 = icmp sle i32 %6, 0
  br i1 %7, label %8, label %9

8:                                                ; preds = %2
  store ptr null, ptr %3, align 8
  br label %14

9:                                                ; preds = %2
  %10 = load ptr, ptr %4, align 8, !tbaa !4
  %11 = load i32, ptr %5, align 4, !tbaa !33
  %12 = sub nsw i32 %11, 1
  %13 = call ptr @tf_get_section(ptr noundef %10, i32 noundef %12)
  store ptr %13, ptr %3, align 8
  br label %14

14:                                               ; preds = %9, %8
  %15 = load ptr, ptr %3, align 8
  ret ptr %15
}

; Function Attrs: inlinehint nounwind uwtable
define internal ptr @tf_get_section(ptr noundef %0, i32 noundef %1) #2 {
  %3 = alloca ptr, align 8
  %4 = alloca ptr, align 8
  %5 = alloca i32, align 4
  store ptr %0, ptr %4, align 8, !tbaa !4
  store i32 %1, ptr %5, align 4, !tbaa !33
  %6 = load ptr, ptr %4, align 8, !tbaa !4
  %7 = icmp ne ptr %6, null
  br i1 %7, label %8, label %22

8:                                                ; preds = %2
  %9 = load i32, ptr %5, align 4, !tbaa !33
  %10 = icmp slt i32 %9, 0
  br i1 %10, label %22, label %11

11:                                               ; preds = %8
  %12 = load i32, ptr %5, align 4, !tbaa !33
  %13 = icmp sge i32 %12, 12
  br i1 %13, label %22, label %14

14:                                               ; preds = %11
  %15 = load ptr, ptr %4, align 8, !tbaa !4
  %16 = getelementptr inbounds nuw %struct.AVTextFormatContext, ptr %15, i32 0, i32 10
  %17 = load i32, ptr %5, align 4, !tbaa !33
  %18 = sext i32 %17 to i64
  %19 = getelementptr inbounds [12 x ptr], ptr %16, i64 0, i64 %18
  %20 = load ptr, ptr %19, align 8, !tbaa !27
  %21 = icmp ne ptr %20, null
  br i1 %21, label %29, label %22

22:                                               ; preds = %14, %11, %8, %2
  %23 = load ptr, ptr %4, align 8, !tbaa !4
  %24 = icmp ne ptr %23, null
  br i1 %24, label %25, label %28

25:                                               ; preds = %22
  %26 = load ptr, ptr %4, align 8, !tbaa !4
  %27 = load i32, ptr %5, align 4, !tbaa !33
  call void (ptr, i32, ptr, ...) @av_log(ptr noundef %26, i32 noundef 16, ptr noundef @.str.22, i32 noundef %27)
  br label %28

28:                                               ; preds = %25, %22
  store ptr null, ptr %3, align 8
  br label %36

29:                                               ; preds = %14
  %30 = load ptr, ptr %4, align 8, !tbaa !4
  %31 = getelementptr inbounds nuw %struct.AVTextFormatContext, ptr %30, i32 0, i32 10
  %32 = load i32, ptr %5, align 4, !tbaa !33
  %33 = sext i32 %32 to i64
  %34 = getelementptr inbounds [12 x ptr], ptr %31, i64 0, i64 %33
  %35 = load ptr, ptr %34, align 8, !tbaa !27
  store ptr %35, ptr %3, align 8
  br label %36

36:                                               ; preds = %29, %28
  %37 = load ptr, ptr %3, align 8
  ret ptr %37
}

; Function Attrs: nounwind uwtable
define internal void @xml_print_section_header(ptr noundef %0, ptr noundef %1) #1 {
  %3 = alloca ptr, align 8
  %4 = alloca ptr, align 8
  %5 = alloca ptr, align 8
  %6 = alloca ptr, align 8
  %7 = alloca ptr, align 8
  %8 = alloca i32, align 4
  %9 = alloca ptr, align 8
  %10 = alloca %struct.AVBPrint, align 8
  store ptr %0, ptr %3, align 8, !tbaa !4
  store ptr %1, ptr %4, align 8, !tbaa !25
  call void @llvm.lifetime.start.p0(i64 8, ptr %5) #6
  %11 = load ptr, ptr %3, align 8, !tbaa !4
  %12 = getelementptr inbounds nuw %struct.AVTextFormatContext, ptr %11, i32 0, i32 4
  %13 = load ptr, ptr %12, align 8, !tbaa !9
  store ptr %13, ptr %5, align 8, !tbaa !18
  call void @llvm.lifetime.start.p0(i64 8, ptr %6) #6
  %14 = load ptr, ptr %3, align 8, !tbaa !4
  %15 = load ptr, ptr %3, align 8, !tbaa !4
  %16 = getelementptr inbounds nuw %struct.AVTextFormatContext, ptr %15, i32 0, i32 7
  %17 = load i32, ptr %16, align 4, !tbaa !26
  %18 = call ptr @tf_get_section(ptr noundef %14, i32 noundef %17)
  store ptr %18, ptr %6, align 8, !tbaa !27
  call void @llvm.lifetime.start.p0(i64 8, ptr %7) #6
  %19 = load ptr, ptr %3, align 8, !tbaa !4
  %20 = load ptr, ptr %3, align 8, !tbaa !4
  %21 = getelementptr inbounds nuw %struct.AVTextFormatContext, ptr %20, i32 0, i32 7
  %22 = load i32, ptr %21, align 4, !tbaa !26
  %23 = call ptr @tf_get_parent_section(ptr noundef %19, i32 noundef %22)
  store ptr %23, ptr %7, align 8, !tbaa !27
  %24 = load ptr, ptr %6, align 8, !tbaa !27
  %25 = icmp ne ptr %24, null
  br i1 %25, label %27, label %26

26:                                               ; preds = %2
  store i32 1, ptr %8, align 4
  br label %137

27:                                               ; preds = %2
  %28 = load ptr, ptr %3, align 8, !tbaa !4
  %29 = getelementptr inbounds nuw %struct.AVTextFormatContext, ptr %28, i32 0, i32 7
  %30 = load i32, ptr %29, align 4, !tbaa !26
  %31 = icmp eq i32 %30, 0
  br i1 %31, label %32, label %49

32:                                               ; preds = %27
  call void @llvm.lifetime.start.p0(i64 8, ptr %9) #6
  store ptr @.str.12, ptr %9, align 8, !tbaa !28
  %33 = load ptr, ptr %3, align 8, !tbaa !4
  call void @writer_put_str(ptr noundef %33, ptr noundef @.str.13)
  %34 = load ptr, ptr %3, align 8, !tbaa !4
  %35 = load ptr, ptr %5, align 8, !tbaa !18
  %36 = getelementptr inbounds nuw %struct.XMLContext, ptr %35, i32 0, i32 3
  %37 = load i32, ptr %36, align 8, !tbaa !22
  %38 = icmp ne i32 %37, 0
  %39 = select i1 %38, ptr @.str.15, ptr @.str.16
  %40 = load ptr, ptr %5, align 8, !tbaa !18
  %41 = getelementptr inbounds nuw %struct.XMLContext, ptr %40, i32 0, i32 3
  %42 = load i32, ptr %41, align 8, !tbaa !22
  %43 = icmp ne i32 %42, 0
  br i1 %43, label %44, label %46

44:                                               ; preds = %32
  %45 = load ptr, ptr %9, align 8, !tbaa !28
  br label %47

46:                                               ; preds = %32
  br label %47

47:                                               ; preds = %46, %44
  %48 = phi ptr [ %45, %44 ], [ @.str.16, %46 ]
  call void (ptr, ptr, ...) @writer_printf(ptr noundef %34, ptr noundef @.str.14, ptr noundef %39, ptr noundef %48)
  store i32 1, ptr %8, align 4
  call void @llvm.lifetime.end.p0(i64 8, ptr %9) #6
  br label %137

49:                                               ; preds = %27
  %50 = load ptr, ptr %5, align 8, !tbaa !18
  %51 = getelementptr inbounds nuw %struct.XMLContext, ptr %50, i32 0, i32 1
  %52 = load i32, ptr %51, align 8, !tbaa !29
  %53 = icmp ne i32 %52, 0
  br i1 %53, label %54, label %58

54:                                               ; preds = %49
  %55 = load ptr, ptr %5, align 8, !tbaa !18
  %56 = getelementptr inbounds nuw %struct.XMLContext, ptr %55, i32 0, i32 1
  store i32 0, ptr %56, align 8, !tbaa !29
  %57 = load ptr, ptr %3, align 8, !tbaa !4
  call void @writer_put_str(ptr noundef %57, ptr noundef @.str.17)
  br label %58

58:                                               ; preds = %54, %49
  %59 = load ptr, ptr %7, align 8, !tbaa !27
  %60 = icmp ne ptr %59, null
  br i1 %60, label %61, label %85

61:                                               ; preds = %58
  %62 = load ptr, ptr %7, align 8, !tbaa !27
  %63 = getelementptr inbounds nuw %struct.AVTextFormatSection, ptr %62, i32 0, i32 2
  %64 = load i32, ptr %63, align 8, !tbaa !30
  %65 = and i32 %64, 1
  %66 = icmp ne i32 %65, 0
  br i1 %66, label %67, label %85

67:                                               ; preds = %61
  %68 = load ptr, ptr %3, align 8, !tbaa !4
  %69 = getelementptr inbounds nuw %struct.AVTextFormatContext, ptr %68, i32 0, i32 7
  %70 = load i32, ptr %69, align 4, !tbaa !26
  %71 = icmp ne i32 %70, 0
  br i1 %71, label %72, label %85

72:                                               ; preds = %67
  %73 = load ptr, ptr %3, align 8, !tbaa !4
  %74 = getelementptr inbounds nuw %struct.AVTextFormatContext, ptr %73, i32 0, i32 8
  %75 = load ptr, ptr %3, align 8, !tbaa !4
  %76 = getelementptr inbounds nuw %struct.AVTextFormatContext, ptr %75, i32 0, i32 7
  %77 = load i32, ptr %76, align 4, !tbaa !26
  %78 = sub nsw i32 %77, 1
  %79 = sext i32 %78 to i64
  %80 = getelementptr inbounds [12 x i32], ptr %74, i64 0, i64 %79
  %81 = load i32, ptr %80, align 4, !tbaa !33
  %82 = icmp ne i32 %81, 0
  br i1 %82, label %83, label %85

83:                                               ; preds = %72
  %84 = load ptr, ptr %3, align 8, !tbaa !4
  call void @writer_w8(ptr noundef %84, i32 noundef 10)
  br label %85

85:                                               ; preds = %83, %72, %67, %61, %58
  %86 = load ptr, ptr %5, align 8, !tbaa !18
  %87 = getelementptr inbounds nuw %struct.XMLContext, ptr %86, i32 0, i32 2
  %88 = load i32, ptr %87, align 4, !tbaa !34
  %89 = add nsw i32 %88, 1
  store i32 %89, ptr %87, align 4, !tbaa !34
  %90 = load ptr, ptr %6, align 8, !tbaa !27
  %91 = getelementptr inbounds nuw %struct.AVTextFormatSection, ptr %90, i32 0, i32 2
  %92 = load i32, ptr %91, align 8, !tbaa !30
  %93 = and i32 %92, 6
  %94 = icmp ne i32 %93, 0
  br i1 %94, label %95, label %124

95:                                               ; preds = %85
  %96 = load ptr, ptr %3, align 8, !tbaa !4
  %97 = load ptr, ptr %5, align 8, !tbaa !18
  %98 = getelementptr inbounds nuw %struct.XMLContext, ptr %97, i32 0, i32 2
  %99 = load i32, ptr %98, align 4, !tbaa !34
  %100 = mul nsw i32 %99, 4
  call void (ptr, ptr, ...) @writer_printf(ptr noundef %96, ptr noundef @.str.18, i32 noundef %100, i32 noundef 32)
  %101 = load ptr, ptr %3, align 8, !tbaa !4
  %102 = load ptr, ptr %6, align 8, !tbaa !27
  %103 = getelementptr inbounds nuw %struct.AVTextFormatSection, ptr %102, i32 0, i32 1
  %104 = load ptr, ptr %103, align 8, !tbaa !35
  call void (ptr, ptr, ...) @writer_printf(ptr noundef %101, ptr noundef @.str.19, ptr noundef %104)
  %105 = load ptr, ptr %6, align 8, !tbaa !27
  %106 = getelementptr inbounds nuw %struct.AVTextFormatSection, ptr %105, i32 0, i32 2
  %107 = load i32, ptr %106, align 8, !tbaa !30
  %108 = and i32 %107, 8
  %109 = icmp ne i32 %108, 0
  br i1 %109, label %110, label %119

110:                                              ; preds = %95
  call void @llvm.lifetime.start.p0(i64 1024, ptr %10) #6
  call void @av_bprint_init(ptr noundef %10, i32 noundef 1, i32 noundef -1)
  %111 = load ptr, ptr %6, align 8, !tbaa !27
  %112 = getelementptr inbounds nuw %struct.AVTextFormatSection, ptr %111, i32 0, i32 7
  %113 = load ptr, ptr %112, align 8, !tbaa !36
  %114 = load ptr, ptr %4, align 8, !tbaa !25
  %115 = call ptr %113(ptr noundef %114)
  call void @av_bprint_escape(ptr noundef %10, ptr noundef %115, ptr noundef null, i32 noundef 3, i32 noundef 8)
  %116 = load ptr, ptr %3, align 8, !tbaa !4
  %117 = getelementptr inbounds nuw %struct.AVBPrint, ptr %10, i32 0, i32 0
  %118 = load ptr, ptr %117, align 8, !tbaa !37
  call void (ptr, ptr, ...) @writer_printf(ptr noundef %116, ptr noundef @.str.20, ptr noundef %118)
  call void @llvm.lifetime.end.p0(i64 1024, ptr %10) #6
  br label %119

119:                                              ; preds = %110, %95
  %120 = load ptr, ptr %3, align 8, !tbaa !4
  %121 = load ptr, ptr %6, align 8, !tbaa !27
  %122 = getelementptr inbounds nuw %struct.AVTextFormatSection, ptr %121, i32 0, i32 1
  %123 = load ptr, ptr %122, align 8, !tbaa !35
  call void (ptr, ptr, ...) @writer_printf(ptr noundef %120, ptr noundef @.str.17, ptr noundef %123)
  br label %136

124:                                              ; preds = %85
  %125 = load ptr, ptr %3, align 8, !tbaa !4
  %126 = load ptr, ptr %5, align 8, !tbaa !18
  %127 = getelementptr inbounds nuw %struct.XMLContext, ptr %126, i32 0, i32 2
  %128 = load i32, ptr %127, align 4, !tbaa !34
  %129 = mul nsw i32 %128, 4
  call void (ptr, ptr, ...) @writer_printf(ptr noundef %125, ptr noundef @.str.18, i32 noundef %129, i32 noundef 32)
  %130 = load ptr, ptr %3, align 8, !tbaa !4
  %131 = load ptr, ptr %6, align 8, !tbaa !27
  %132 = getelementptr inbounds nuw %struct.AVTextFormatSection, ptr %131, i32 0, i32 1
  %133 = load ptr, ptr %132, align 8, !tbaa !35
  call void (ptr, ptr, ...) @writer_printf(ptr noundef %130, ptr noundef @.str.21, ptr noundef %133)
  %134 = load ptr, ptr %5, align 8, !tbaa !18
  %135 = getelementptr inbounds nuw %struct.XMLContext, ptr %134, i32 0, i32 1
  store i32 1, ptr %135, align 8, !tbaa !29
  br label %136

136:                                              ; preds = %124, %119
  store i32 0, ptr %8, align 4
  br label %137

137:                                              ; preds = %136, %47, %26
  call void @llvm.lifetime.end.p0(i64 8, ptr %7) #6
  call void @llvm.lifetime.end.p0(i64 8, ptr %6) #6
  call void @llvm.lifetime.end.p0(i64 8, ptr %5) #6
  %138 = load i32, ptr %8, align 4
  switch i32 %138, label %140 [
    i32 0, label %139
    i32 1, label %139
  ]

139:                                              ; preds = %137, %137
  ret void

140:                                              ; preds = %137
  unreachable
}