; Function Attrs: nounwind uwtable
define internal void @xml_print_section_header(ptr noundef %0, ptr noundef %1) #1 {
  %3 = alloca %struct.AVBPrint, align 8
  %4 = getelementptr inbounds nuw i8, ptr %0, i64 32
  %5 = load ptr, ptr %4, align 8, !tbaa !4
  %6 = getelementptr inbounds nuw i8, ptr %0, i64 52
  %7 = load i32, ptr %6, align 4, !tbaa !21
  %8 = icmp eq ptr %0, null
  %9 = icmp ugt i32 %7, 11
  %or.cond3.i = or i1 %8, %9
  br i1 %or.cond3.i, label %.thread.i, label %10

10:                                               ; preds = %2
  %11 = getelementptr inbounds nuw i8, ptr %0, i64 4904
  %12 = zext nneg i32 %7 to i64
  %13 = getelementptr inbounds nuw [12 x ptr], ptr %11, i64 0, i64 %12
  %14 = load ptr, ptr %13, align 8, !tbaa !22
  %.not.i = icmp eq ptr %14, null
  br i1 %.not.i, label %.thread.i, label %tf_get_section.exit

.thread.i:                                        ; preds = %2, %10
  tail call void (ptr, i32, ptr, ...) @av_log(ptr noundef nonnull %0, i32 noundef 16, ptr noundef nonnull @.str.22, i32 noundef %7) #6
  %.pre = load i32, ptr %6, align 4, !tbaa !21
  br label %tf_get_section.exit

tf_get_section.exit:                              ; preds = %10, %.thread.i
  %15 = phi i32 [ %.pre, %.thread.i ], [ %7, %10 ]
  %.0.i = phi ptr [ null, %.thread.i ], [ %14, %10 ]
  %16 = icmp slt i32 %15, 1
  br i1 %16, label %tf_get_parent_section.exit, label %17

17:                                               ; preds = %tf_get_section.exit
  %18 = add nsw i32 %15, -1
  %19 = icmp samesign ugt i32 %18, 11
  %or.cond3.i.i = or i1 %8, %19
  br i1 %or.cond3.i.i, label %.thread.i.i, label %20

20:                                               ; preds = %17
  %21 = getelementptr inbounds nuw i8, ptr %0, i64 4904
  %22 = zext nneg i32 %18 to i64
  %23 = getelementptr inbounds nuw [12 x ptr], ptr %21, i64 0, i64 %22
  %24 = load ptr, ptr %23, align 8, !tbaa !22
  %.not.i.i = icmp eq ptr %24, null
  br i1 %.not.i.i, label %.thread.i.i, label %tf_get_parent_section.exit

.thread.i.i:                                      ; preds = %17, %20
  tail call void (ptr, i32, ptr, ...) @av_log(ptr noundef nonnull %0, i32 noundef 16, ptr noundef nonnull @.str.22, i32 noundef %18) #6
  br label %tf_get_parent_section.exit

tf_get_parent_section.exit:                       ; preds = %tf_get_section.exit, %20, %.thread.i.i
  %.0.i50 = phi ptr [ null, %tf_get_section.exit ], [ null, %.thread.i.i ], [ %24, %20 ]
  %.not = icmp eq ptr %.0.i, null
  br i1 %.not, label %87, label %25

25:                                               ; preds = %tf_get_parent_section.exit
  %26 = load i32, ptr %6, align 4, !tbaa !21
  %27 = icmp eq i32 %26, 0
  br i1 %27, label %28, label %38

28:                                               ; preds = %25
  %29 = getelementptr i8, ptr %0, i64 16
  %.val48 = load ptr, ptr %29, align 8, !tbaa !23
  %30 = getelementptr inbounds nuw i8, ptr %.val48, i64 8
  %31 = load ptr, ptr %30, align 8, !tbaa !24
  %32 = getelementptr inbounds nuw i8, ptr %31, i64 48
  %33 = load ptr, ptr %32, align 8, !tbaa !27
  tail call void %33(ptr noundef %.val48, ptr noundef nonnull @.str.13) #6
  %34 = getelementptr inbounds nuw i8, ptr %5, i64 16
  %35 = load i32, ptr %34, align 8, !tbaa !18
  %.not47 = icmp eq i32 %35, 0
  %36 = select i1 %.not47, ptr @.str.16, ptr @.str.15
  %37 = select i1 %.not47, ptr @.str.16, ptr @.str.12
  tail call void (ptr, ptr, ...) @writer_printf(ptr noundef nonnull %0, ptr noundef nonnull @.str.14, ptr noundef nonnull %36, ptr noundef nonnull %37)
  br label %87

38:                                               ; preds = %25
  %39 = getelementptr inbounds nuw i8, ptr %5, i64 8
  %40 = load i32, ptr %39, align 8, !tbaa !29
  %.not40 = icmp eq i32 %40, 0
  br i1 %.not40, label %47, label %41

41:                                               ; preds = %38
  store i32 0, ptr %39, align 8, !tbaa !29
  %42 = getelementptr i8, ptr %0, i64 16
  %.val49 = load ptr, ptr %42, align 8, !tbaa !23
  %43 = getelementptr inbounds nuw i8, ptr %.val49, i64 8
  %44 = load ptr, ptr %43, align 8, !tbaa !24
  %45 = getelementptr inbounds nuw i8, ptr %44, i64 48
  %46 = load ptr, ptr %45, align 8, !tbaa !27
  tail call void %46(ptr noundef %.val49, ptr noundef nonnull @.str.17) #6
  br label %47

47:                                               ; preds = %41, %38
  %.not41 = icmp eq ptr %.0.i50, null
  br i1 %.not41, label %66, label %48

48:                                               ; preds = %47
  %49 = getelementptr inbounds nuw i8, ptr %.0.i50, i64 16
  %50 = load i32, ptr %49, align 8, !tbaa !30
  %51 = and i32 %50, 1
  %.not42 = icmp eq i32 %51, 0
  br i1 %.not42, label %66, label %52

52:                                               ; preds = %48
  %53 = load i32, ptr %6, align 4, !tbaa !21
  %.not43 = icmp eq i32 %53, 0
  br i1 %.not43, label %66, label %54

54:                                               ; preds = %52
  %55 = getelementptr inbounds nuw i8, ptr %0, i64 56
  %56 = add nsw i32 %53, -1
  %57 = sext i32 %56 to i64
  %58 = getelementptr inbounds [12 x i32], ptr %55, i64 0, i64 %57
  %59 = load i32, ptr %58, align 4, !tbaa !33
  %.not44 = icmp eq i32 %59, 0
  br i1 %.not44, label %66, label %60

60:                                               ; preds = %54
  %61 = getelementptr i8, ptr %0, i64 16
  %.val = load ptr, ptr %61, align 8, !tbaa !23
  %62 = getelementptr inbounds nuw i8, ptr %.val, i64 8
  %63 = load ptr, ptr %62, align 8, !tbaa !24
  %64 = getelementptr inbounds nuw i8, ptr %63, i64 40
  %65 = load ptr, ptr %64, align 8, !tbaa !34
  tail call void %65(ptr noundef %.val, i32 noundef 10) #6
  br label %66

66:                                               ; preds = %60, %54, %52, %48, %47
  %67 = getelementptr inbounds nuw i8, ptr %5, i64 12
  %68 = load i32, ptr %67, align 4, !tbaa !35
  %69 = add nsw i32 %68, 1
  store i32 %69, ptr %67, align 4, !tbaa !35
  %70 = getelementptr inbounds nuw i8, ptr %.0.i, i64 16
  %71 = load i32, ptr %70, align 8, !tbaa !30
  %72 = and i32 %71, 6
  %.not45 = icmp eq i32 %72, 0
  %73 = shl nsw i32 %69, 2
  tail call void (ptr, ptr, ...) @writer_printf(ptr noundef nonnull %0, ptr noundef nonnull @.str.18, i32 noundef %73, i32 noundef 32)
  %74 = getelementptr inbounds nuw i8, ptr %.0.i, i64 8
  %75 = load ptr, ptr %74, align 8, !tbaa !36
  br i1 %.not45, label %86, label %76

76:                                               ; preds = %66
  tail call void (ptr, ptr, ...) @writer_printf(ptr noundef nonnull %0, ptr noundef nonnull @.str.19, ptr noundef %75)
  %77 = load i32, ptr %70, align 8, !tbaa !30
  %78 = and i32 %77, 8
  %.not46 = icmp eq i32 %78, 0
  br i1 %.not46, label %84, label %79

79:                                               ; preds = %76
  call void @llvm.lifetime.start.p0(i64 1024, ptr nonnull %3) #6
  call void @av_bprint_init(ptr noundef nonnull %3, i32 noundef 1, i32 noundef -1) #6
  %80 = getelementptr inbounds nuw i8, ptr %.0.i, i64 96
  %81 = load ptr, ptr %80, align 8, !tbaa !37
  %82 = call ptr %81(ptr noundef %1) #6
  call void @av_bprint_escape(ptr noundef nonnull %3, ptr noundef %82, ptr noundef null, i32 noundef 3, i32 noundef 8) #6
  %83 = load ptr, ptr %3, align 8, !tbaa !38
  call void (ptr, ptr, ...) @writer_printf(ptr noundef nonnull %0, ptr noundef nonnull @.str.20, ptr noundef %83)
  call void @llvm.lifetime.end.p0(i64 1024, ptr nonnull %3) #6
  br label %84

84:                                               ; preds = %79, %76
  %85 = load ptr, ptr %74, align 8, !tbaa !36
  call void (ptr, ptr, ...) @writer_printf(ptr noundef nonnull %0, ptr noundef nonnull @.str.17, ptr noundef %85)
  br label %87

86:                                               ; preds = %66
  tail call void (ptr, ptr, ...) @writer_printf(ptr noundef nonnull %0, ptr noundef nonnull @.str.21, ptr noundef %75)
  store i32 1, ptr %39, align 8, !tbaa !29
  br label %87

87:                                               ; preds = %84, %86, %tf_get_parent_section.exit, %28
  ret void
}